target datalayout = "e-m:e-p270:32:32-p271:32:32-p272:64:64-i64:64-i128:128-f80:128-n8:16:32:64-S128"
target triple = "x86_64-pc-linux-gnu"

%struct.Node = type { i32, [2 x i32] }

; Function Attrs: nounwind uwtable
define internal void @get_tree_codes(ptr noundef %0, ptr noundef %1, i32 noundef %2, i32 noundef %3, i32 noundef %4) #1 {
  %6 = alloca ptr, align 8
  %7 = alloca ptr, align 8
  %8 = alloca i32, align 4
  %9 = alloca i32, align 4
  %10 = alloca i32, align 4
  store ptr %0, ptr %6, align 8, !tbaa !50
  store ptr %1, ptr %7, align 8, !tbaa !135
  store i32 %2, ptr %8, align 4, !tbaa !60
  store i32 %3, ptr %9, align 4, !tbaa !60
  store i32 %4, ptr %10, align 4, !tbaa !60
  %11 = load i32, ptr %8, align 4, !tbaa !60
  %12 = icmp slt i32 %11, 256
  br i1 %12, label %13, label %22

13:                                               ; preds = %5
  %14 = load i32, ptr %8, align 4, !tbaa !60
  %15 = icmp sge i32 %14, 0
  br i1 %15, label %16, label %22

16:                                               ; preds = %13
  %17 = load i32, ptr %9, align 4, !tbaa !60
  %18 = load ptr, ptr %6, align 8, !tbaa !50
  %19 = load i32, ptr %8, align 4, !tbaa !60
  %20 = sext i32 %19 to i64
  %21 = getelementptr inbounds i32, ptr %18, i64 %20
  store i32 %17, ptr %21, align 4, !tbaa !60
  br label %57

22:                                               ; preds = %13, %5
  %23 = load i32, ptr %8, align 4, !tbaa !60
  %24 = icmp sge i32 %23, 0
  br i1 %24, label %25, label %56

25:                                               ; preds = %22
  %26 = load ptr, ptr %6, align 8, !tbaa !50
  %27 = load ptr, ptr %7, align 8, !tbaa !135
  %28 = load ptr, ptr %7, align 8, !tbaa !135
  %29 = load i32, ptr %8, align 4, !tbaa !60
  %30 = sext i32 %29 to i64
  %31 = getelementptr inbounds %struct.Node, ptr %28, i64 %30
  %32 = getelementptr inbounds nuw %struct.Node, ptr %31, i32 0, i32 1
  %33 = getelementptr inbounds [2 x i32], ptr %32, i64 0, i64 0
  %34 = load i32, ptr %33, align 4, !tbaa !60
  %35 = load i32, ptr %9, align 4, !tbaa !60
  %36 = load i32, ptr %10, align 4, !tbaa !60
  %37 = shl i32 0, %36
  %38 = add i32 %35, %37
  %39 = load i32, ptr %10, align 4, !tbaa !60
  %40 = add nsw i32 %39, 1
  call void @get_tree_codes(ptr noundef %26, ptr noundef %27, i32 noundef %34, i32 noundef %38, i32 noundef %40)
  %41 = load ptr, ptr %6, align 8, !tbaa !50
  %42 = load ptr, ptr %7, align 8, !tbaa !135
  %43 = load ptr, ptr %7, align 8, !tbaa !135
  %44 = load i32, ptr %8, align 4, !tbaa !60
  %45 = sext i32 %44 to i64
  %46 = getelementptr inbounds %struct.Node, ptr %43, i64 %45
  %47 = getelementptr inbounds nuw %struct.Node, ptr %46, i32 0, i32 1
  %48 = getelementptr inbounds [2 x i32], ptr %47, i64 0, i64 1
  %49 = load i32, ptr %48, align 4, !tbaa !60
  %50 = load i32, ptr %9, align 4, !tbaa !60
  %51 = load i32, ptr %10, align 4, !tbaa !60
  %52 = shl i32 1, %51
  %53 = add i32 %50, %52
  %54 = load i32, ptr %10, align 4, !tbaa !60
  %55 = add nsw i32 %54, 1
  call void @get_tree_codes(ptr noundef %41, ptr noundef %42, i32 noundef %49, i32 noundef %53, i32 noundef %55)
  br label %56

56:                                               ; preds = %25, %22
  br label %57

57:                                               ; preds = %56, %16
  ret void
}