; Function Attrs: nofree nosync nounwind memory(argmem: readwrite) uwtable
define internal fastcc void @get_tree_codes(ptr noundef nonnull writeonly captures(none) %0, ptr noundef nonnull readonly captures(none) %1, i32 noundef %2, i32 noundef %3, i32 noundef %4) unnamed_addr #7 {
  %or.cond26 = icmp ult i32 %2, 256
  br i1 %or.cond26, label %tailrecurse._crit_edge, label %.lr.ph

tailrecurse._crit_edge:                           ; preds = %tailrecurse, %5
  %.tr21.lcssa = phi i32 [ %2, %5 ], [ %14, %tailrecurse ]
  %.tr22.lcssa = phi i32 [ %3, %5 ], [ %16, %tailrecurse ]
  %6 = zext nneg i32 %.tr21.lcssa to i64
  %7 = getelementptr inbounds nuw i32, ptr %0, i64 %6
  store i32 %.tr22.lcssa, ptr %7, align 4, !tbaa !72
  br label %.loopexit

.lr.ph:                                           ; preds = %5, %tailrecurse
  %.tr2329 = phi i32 [ %12, %tailrecurse ], [ %4, %5 ]
  %.tr2228 = phi i32 [ %16, %tailrecurse ], [ %3, %5 ]
  %.tr2127 = phi i32 [ %14, %tailrecurse ], [ %2, %5 ]
  %8 = icmp sgt i32 %.tr2127, -1
  br i1 %8, label %tailrecurse, label %.loopexit

tailrecurse:                                      ; preds = %.lr.ph
  %9 = zext nneg i32 %.tr2127 to i64
  %10 = getelementptr inbounds nuw %struct.Node, ptr %1, i64 %9, i32 1
  %11 = load i32, ptr %10, align 4, !tbaa !72
  %12 = add nsw i32 %.tr2329, 1
  tail call fastcc void @get_tree_codes(ptr noundef %0, ptr noundef %1, i32 noundef %11, i32 noundef %.tr2228, i32 noundef %12)
  %13 = getelementptr inbounds nuw i8, ptr %10, i64 4
  %14 = load i32, ptr %13, align 4, !tbaa !72
  %15 = shl nuw i32 1, %.tr2329
  %16 = add i32 %15, %.tr2228
  %or.cond = icmp ult i32 %14, 256
  br i1 %or.cond, label %tailrecurse._crit_edge, label %.lr.ph

.loopexit:                                        ; preds = %.lr.ph, %tailrecurse._crit_edge
  ret void
}